; ModuleID = '44/979.c'
source_filename = "44/979.c"
target datalayout = "e-m:e-p270:32:32-p271:32:32-p272:64:64-i64:64-f80:128-n8:16:32:64-S128"
target triple = "x86_64-pc-linux-gnu"

@.str = private unnamed_addr constant [3 x i8] c"%d\00", align 1
@.str.1 = private unnamed_addr constant [4 x i8] c"%d\0A\00", align 1

; Function Attrs: noinline nounwind uwtable
define dso_local void @main() #0 {
  %1 = alloca [6 x [1 x i32]], align 16
  %2 = alloca i32, align 4
  store i32 0, i32* %2, align 4
  br label %3

3:                                                ; preds = %12, %0
  %4 = load i32, i32* %2, align 4
  %5 = icmp slt i32 %4, 6
  br i1 %5, label %6, label %15

6:                                                ; preds = %3
  %7 = load i32, i32* %2, align 4
  %8 = sext i32 %7 to i64
  %9 = getelementptr inbounds [6 x [1 x i32]], [6 x [1 x i32]]* %1, i64 0, i64 %8
  %10 = getelementptr inbounds [1 x i32], [1 x i32]* %9, i64 0, i64 0
  %11 = call i32 (i8*, ...) @__isoc99_scanf(i8* getelementptr inbounds ([3 x i8], [3 x i8]* @.str, i64 0, i64 0), i32* %10)
  br label %12

12:                                               ; preds = %6
  %13 = load i32, i32* %2, align 4
  %14 = add nsw i32 %13, 1
  store i32 %14, i32* %2, align 4
  br label %3

15:                                               ; preds = %3
  store i32 0, i32* %2, align 4
  br label %16

16:                                               ; preds = %27, %15
  %17 = load i32, i32* %2, align 4
  %18 = icmp slt i32 %17, 6
  br i1 %18, label %19, label %30

19:                                               ; preds = %16
  %20 = load i32, i32* %2, align 4
  %21 = sext i32 %20 to i64
  %22 = getelementptr inbounds [6 x [1 x i32]], [6 x [1 x i32]]* %1, i64 0, i64 %21
  %23 = getelementptr inbounds [1 x i32], [1 x i32]* %22, i64 0, i64 0
  %24 = load i32, i32* %23, align 4
  %25 = call i32 @reverse(i32 %24)
  %26 = call i32 (i8*, ...) @printf(i8* getelementptr inbounds ([4 x i8], [4 x i8]* @.str.1, i64 0, i64 0), i32 %25)
  br label %27

27:                                               ; preds = %19
  %28 = load i32, i32* %2, align 4
  %29 = add nsw i32 %28, 1
  store i32 %29, i32* %2, align 4
  br label %16

30:                                               ; preds = %16
  ret void
}

declare dso_local i32 @__isoc99_scanf(i8*, ...) #1

declare dso_local i32 @printf(i8*, ...) #1

; Function Attrs: noinline nounwind uwtable
define dso_local i32 @reverse(i32 %0) #0 {
  %2 = alloca i32, align 4
  %3 = alloca i32, align 4
  %4 = alloca i32, align 4
  %5 = alloca i32, align 4
  %6 = alloca [100 x i32], align 16
  store i32 %0, i32* %2, align 4
  store i32 0, i32* %5, align 4
  %7 = load i32, i32* %2, align 4
  %8 = icmp slt i32 %7, 0
  br i1 %8, label %9, label %79

9:                                                ; preds = %1
  %10 = load i32, i32* %2, align 4
  %11 = sub nsw i32 0, %10
  store i32 %11, i32* %2, align 4
  %12 = load i32, i32* %2, align 4
  %13 = sitofp i32 %12 to double
  %14 = call double @log10(double %13) #3
  %15 = fadd double %14, 1.000000e+00
  %16 = fptosi double %15 to i32
  store i32 %16, i32* %4, align 4
  store i32 0, i32* %3, align 4
  br label %17

17:                                               ; preds = %51, %9
  %18 = load i32, i32* %3, align 4
  %19 = load i32, i32* %4, align 4
  %20 = icmp slt i32 %18, %19
  br i1 %20, label %21, label %54

21:                                               ; preds = %17
  %22 = load i32, i32* %2, align 4
  %23 = sitofp i32 %22 to double
  %24 = load i32, i32* %4, align 4
  %25 = load i32, i32* %3, align 4
  %26 = sub nsw i32 %24, %25
  %27 = sub nsw i32 %26, 1
  %28 = sitofp i32 %27 to double
  %29 = call double @pow(double 1.000000e+01, double %28) #3
  %30 = fdiv double %23, %29
  %31 = fptosi double %30 to i32
  %32 = load i32, i32* %3, align 4
  %33 = sext i32 %32 to i64
  %34 = getelementptr inbounds [100 x i32], [100 x i32]* %6, i64 0, i64 %33
  store i32 %31, i32* %34, align 4
  %35 = load i32, i32* %2, align 4
  %36 = sitofp i32 %35 to double
  %37 = load i32, i32* %3, align 4
  %38 = sext i32 %37 to i64
  %39 = getelementptr inbounds [100 x i32], [100 x i32]* %6, i64 0, i64 %38
  %40 = load i32, i32* %39, align 4
  %41 = sitofp i32 %40 to double
  %42 = load i32, i32* %4, align 4
  %43 = load i32, i32* %3, align 4
  %44 = sub nsw i32 %42, %43
  %45 = sub nsw i32 %44, 1
  %46 = sitofp i32 %45 to double
  %47 = call double @pow(double 1.000000e+01, double %46) #3
  %48 = fmul double %41, %47
  %49 = fsub double %36, %48
  %50 = fptosi double %49 to i32
  store i32 %50, i32* %2, align 4
  br label %51

51:                                               ; preds = %21
  %52 = load i32, i32* %3, align 4
  %53 = add nsw i32 %52, 1
  store i32 %53, i32* %3, align 4
  br label %17

54:                                               ; preds = %17
  store i32 0, i32* %3, align 4
  br label %55

55:                                               ; preds = %73, %54
  %56 = load i32, i32* %3, align 4
  %57 = load i32, i32* %4, align 4
  %58 = icmp slt i32 %56, %57
  br i1 %58, label %59, label %76

59:                                               ; preds = %55
  %60 = load i32, i32* %3, align 4
  %61 = sext i32 %60 to i64
  %62 = getelementptr inbounds [100 x i32], [100 x i32]* %6, i64 0, i64 %61
  %63 = load i32, i32* %62, align 4
  %64 = sitofp i32 %63 to double
  %65 = load i32, i32* %3, align 4
  %66 = sitofp i32 %65 to double
  %67 = call double @pow(double 1.000000e+01, double %66) #3
  %68 = fmul double %64, %67
  %69 = load i32, i32* %5, align 4
  %70 = sitofp i32 %69 to double
  %71 = fadd double %70, %68
  %72 = fptosi double %71 to i32
  store i32 %72, i32* %5, align 4
  br label %73

73:                                               ; preds = %59
  %74 = load i32, i32* %3, align 4
  %75 = add nsw i32 %74, 1
  store i32 %75, i32* %3, align 4
  br label %55

76:                                               ; preds = %55
  %77 = load i32, i32* %5, align 4
  %78 = sub nsw i32 0, %77
  store i32 %78, i32* %5, align 4
  br label %150

79:                                               ; preds = %1
  %80 = load i32, i32* %2, align 4
  %81 = icmp sgt i32 %80, 0
  br i1 %81, label %82, label %148

82:                                               ; preds = %79
  %83 = load i32, i32* %2, align 4
  %84 = sitofp i32 %83 to double
  %85 = call double @log10(double %84) #3
  %86 = fadd double %85, 1.000000e+00
  %87 = fptosi double %86 to i32
  store i32 %87, i32* %4, align 4
  store i32 0, i32* %3, align 4
  br label %88

88:                                               ; preds = %122, %82
  %89 = load i32, i32* %3, align 4
  %90 = load i32, i32* %4, align 4
  %91 = icmp slt i32 %89, %90
  br i1 %91, label %92, label %125

92:                                               ; preds = %88
  %93 = load i32, i32* %2, align 4
  %94 = sitofp i32 %93 to double
  %95 = load i32, i32* %4, align 4
  %96 = load i32, i32* %3, align 4
  %97 = sub nsw i32 %95, %96
  %98 = sub nsw i32 %97, 1
  %99 = sitofp i32 %98 to double
  %100 = call double @pow(double 1.000000e+01, double %99) #3
  %101 = fdiv double %94, %100
  %102 = fptosi double %101 to i32
  %103 = load i32, i32* %3, align 4
  %104 = sext i32 %103 to i64
  %105 = getelementptr inbounds [100 x i32], [100 x i32]* %6, i64 0, i64 %104
  store i32 %102, i32* %105, align 4
  %106 = load i32, i32* %2, align 4
  %107 = sitofp i32 %106 to double
  %108 = load i32, i32* %3, align 4
  %109 = sext i32 %108 to i64
  %110 = getelementptr inbounds [100 x i32], [100 x i32]* %6, i64 0, i64 %109
  %111 = load i32, i32* %110, align 4
  %112 = sitofp i32 %111 to double
  %113 = load i32, i32* %4, align 4
  %114 = load i32, i32* %3, align 4
  %115 = sub nsw i32 %113, %114
  %116 = sub nsw i32 %115, 1
  %117 = sitofp i32 %116 to double
  %118 = call double @pow(double 1.000000e+01, double %117) #3
  %119 = fmul double %112, %118
  %120 = fsub double %107, %119
  %121 = fptosi double %120 to i32
  store i32 %121, i32* %2, align 4
  br label %122

122:                                              ; preds = %92
  %123 = load i32, i32* %3, align 4
  %124 = add nsw i32 %123, 1
  store i32 %124, i32* %3, align 4
  br label %88

125:                                              ; preds = %88
  store i32 0, i32* %3, align 4
  br label %126

126:                                              ; preds = %144, %125
  %127 = load i32, i32* %3, align 4
  %128 = load i32, i32* %4, align 4
  %129 = icmp slt i32 %127, %128
  br i1 %129, label %130, label %147

130:                                              ; preds = %126
  %131 = load i32, i32* %3, align 4
  %132 = sext i32 %131 to i64
  %133 = getelementptr inbounds [100 x i32], [100 x i32]* %6, i64 0, i64 %132
  %134 = load i32, i32* %133, align 4
  %135 = sitofp i32 %134 to double
  %136 = load i32, i32* %3, align 4
  %137 = sitofp i32 %136 to double
  %138 = call double @pow(double 1.000000e+01, double %137) #3
  %139 = fmul double %135, %138
  %140 = load i32, i32* %5, align 4
  %141 = sitofp i32 %140 to double
  %142 = fadd double %141, %139
  %143 = fptosi double %142 to i32
  store i32 %143, i32* %5, align 4
  br label %144

144:                                              ; preds = %130
  %145 = load i32, i32* %3, align 4
  %146 = add nsw i32 %145, 1
  store i32 %146, i32* %3, align 4
  br label %126

147:                                              ; preds = %126
  br label %149

148:                                              ; preds = %79
  store i32 0, i32* %5, align 4
  br label %149

149:                                              ; preds = %148, %147
  br label %150

150:                                              ; preds = %149, %76
  %151 = load i32, i32* %5, align 4
  ret i32 %151
}

; Function Attrs: nounwind
declare dso_local double @log10(double) #2

; Function Attrs: nounwind
declare dso_local double @pow(double, double) #2


!llvm.module.flags = !{!0}
!llvm.ident = !{!1}

!0 = !{i32 1, !"wchar_size", i32 4}
!1 = !{!"clang version 10.0.0-4ubuntu1 "}
